; Function Attrs: nounwind uwtable
define dso_local i32 @cmd_for_each_repo(i32 noundef %0, ptr noundef %1, ptr noundef %2, ptr noundef readnone captures(none) %3) local_unnamed_addr #0 {
  %5 = alloca %struct.child_process, align 8
  %6 = alloca i32, align 4
  %7 = alloca ptr, align 8
  %8 = alloca [3 x %struct.option], align 16
  call void @llvm.lifetime.start.p0(i64 4, ptr nonnull %6) #9
  store i32 0, ptr %6, align 4, !tbaa !4
  call void @llvm.lifetime.start.p0(i64 8, ptr nonnull %7) #9
  call void @llvm.lifetime.start.p0(i64 264, ptr nonnull %8) #9
  store i32 10, ptr %8, align 16, !tbaa !8
  %9 = getelementptr inbounds nuw i8, ptr %8, i64 4
  store i32 0, ptr %9, align 4, !tbaa !13
  %10 = getelementptr inbounds nuw i8, ptr %8, i64 8
  store ptr @.str, ptr %10, align 8, !tbaa !14
  %11 = getelementptr inbounds nuw i8, ptr %8, i64 16
  store ptr @cmd_for_each_repo.config_key, ptr %11, align 16, !tbaa !15
  %12 = getelementptr inbounds nuw i8, ptr %8, i64 24
  store ptr @.str, ptr %12, align 8, !tbaa !16
  %13 = getelementptr inbounds nuw i8, ptr %8, i64 32
  store ptr @.str.1, ptr %13, align 16, !tbaa !17
  %14 = getelementptr inbounds nuw i8, ptr %8, i64 40
  %15 = getelementptr inbounds nuw i8, ptr %8, i64 88
  call void @llvm.memset.p0.i64(ptr noundef nonnull align 8 dereferenceable(48) %14, i8 0, i64 48, i1 false)
  store i32 9, ptr %15, align 8, !tbaa !8
  %16 = getelementptr inbounds nuw i8, ptr %8, i64 92
  store i32 0, ptr %16, align 4, !tbaa !13
  %17 = getelementptr inbounds nuw i8, ptr %8, i64 96
  store ptr @.str.2, ptr %17, align 16, !tbaa !14
  %18 = getelementptr inbounds nuw i8, ptr %8, i64 104
  store ptr %6, ptr %18, align 8, !tbaa !15
  %19 = getelementptr inbounds nuw i8, ptr %8, i64 112
  store ptr null, ptr %19, align 16, !tbaa !16
  %20 = getelementptr inbounds nuw i8, ptr %8, i64 120
  store ptr @.str.3, ptr %20, align 8, !tbaa !17
  %21 = getelementptr inbounds nuw i8, ptr %8, i64 128
  store i32 2, ptr %21, align 16, !tbaa !18
  %22 = getelementptr inbounds nuw i8, ptr %8, i64 132
  store i32 0, ptr %22, align 4
  %23 = getelementptr inbounds nuw i8, ptr %8, i64 136
  store ptr null, ptr %23, align 8, !tbaa !19
  %24 = getelementptr inbounds nuw i8, ptr %8, i64 144
  store i64 1, ptr %24, align 16, !tbaa !20
  %25 = getelementptr inbounds nuw i8, ptr %8, i64 152
  call void @llvm.memset.p0.i64(ptr noundef nonnull align 8 dereferenceable(112) %25, i8 0, i64 112, i1 false)
  %26 = call i32 @parse_options(i32 noundef %0, ptr noundef %1, ptr noundef %2, ptr noundef nonnull %8, ptr noundef nonnull @for_each_repo_usage, i32 noundef 2) #9
  %.fr41 = freeze i32 %26
  %27 = load ptr, ptr @cmd_for_each_repo.config_key, align 8, !tbaa !21
  %.not = icmp eq ptr %27, null
  br i1 %.not, label %28, label %30

28:                                               ; preds = %4
  %29 = call fastcc ptr @_(ptr noundef nonnull @.str.4)
  call void (ptr, ...) @die(ptr noundef %29) #10
  unreachable

30:                                               ; preds = %4
  %31 = load ptr, ptr @the_repository, align 8, !tbaa !22
  %32 = call i32 @repo_config_get_string_multi(ptr noundef %31, ptr noundef nonnull %27, ptr noundef nonnull %7) #9
  %33 = icmp slt i32 %32, 0
  br i1 %33, label %34, label %37

34:                                               ; preds = %30
  %35 = call fastcc ptr @_(ptr noundef nonnull @.str.5)
  %36 = load ptr, ptr @cmd_for_each_repo.config_key, align 8, !tbaa !21
  call void (ptr, ptr, ptr, ...) @usage_msg_optf(ptr noundef %35, ptr noundef nonnull @for_each_repo_usage, ptr noundef nonnull %8, ptr noundef %36) #10
  unreachable

37:                                               ; preds = %30
  %.not26 = icmp eq i32 %32, 0
  br i1 %.not26, label %.preheader, label %.loopexit

.preheader:                                       ; preds = %37
  %38 = load ptr, ptr %7, align 8, !tbaa !24
  %39 = getelementptr inbounds nuw i8, ptr %38, i64 8
  %40 = load i64, ptr %39, align 8, !tbaa !26
  %.not2935.not = icmp eq i64 %40, 0
  br i1 %.not2935.not, label %.loopexit, label %.lr.ph

.lr.ph:                                           ; preds = %.preheader
  %41 = getelementptr inbounds nuw i8, ptr %5, i64 104
  %42 = icmp sgt i32 %.fr41, 0
  %wide.trip.count.i = zext nneg i32 %.fr41 to i64
  br i1 %42, label %.lr.ph.preheader.i.us, label %run_command_on_repo.exit

.lr.ph.preheader.i.us:                            ; preds = %.lr.ph, %53
  %43 = phi ptr [ %55, %53 ], [ %38, %.lr.ph ]
  %.01637.us = phi i64 [ %54, %53 ], [ 0, %.lr.ph ]
  %.01936.us = phi i32 [ %.322.ph.us, %53 ], [ 0, %.lr.ph ]
  %44 = load ptr, ptr %43, align 8, !tbaa !29
  %45 = getelementptr inbounds nuw %struct.string_list_item, ptr %44, i64 %.01637.us
  %46 = load ptr, ptr %45, align 8, !tbaa !30
  call void @llvm.lifetime.start.p0(i64 120, ptr nonnull %5) #9
  call void @llvm.memcpy.p0.p0.i64(ptr noundef nonnull align 8 dereferenceable(120) %5, ptr noundef nonnull align 8 dereferenceable(120) @__const.run_command_on_repo.child, i64 120, i1 false)
  %47 = call ptr @interpolate_path(ptr noundef %46, i32 noundef 0) #9
  store i16 8, ptr %41, align 8
  call void (ptr, ...) @strvec_pushl(ptr noundef nonnull %5, ptr noundef nonnull @.str.8, ptr noundef %47, ptr noundef null) #9
  br label %.lr.ph.i.us

.lr.ph.i.us:                                      ; preds = %.lr.ph.i.us, %.lr.ph.preheader.i.us
  %indvars.iv.i.us = phi i64 [ 0, %.lr.ph.preheader.i.us ], [ %indvars.iv.next.i.us, %.lr.ph.i.us ]
  %48 = getelementptr inbounds nuw ptr, ptr %1, i64 %indvars.iv.i.us
  %49 = load ptr, ptr %48, align 8, !tbaa !21
  %50 = call ptr @strvec_push(ptr noundef nonnull %5, ptr noundef %49) #9
  %indvars.iv.next.i.us = add nuw nsw i64 %indvars.iv.i.us, 1
  %exitcond.not.i.us = icmp eq i64 %indvars.iv.next.i.us, %wide.trip.count.i
  br i1 %exitcond.not.i.us, label %run_command_on_repo.exit.loopexit.us, label %.lr.ph.i.us, !llvm.loop !32

51:                                               ; preds = %run_command_on_repo.exit.loopexit.us
  %52 = load i32, ptr %6, align 4, !tbaa !4
  %.not28.us = icmp eq i32 %52, 0
  br i1 %.not28.us, label %.loopexit, label %53

53:                                               ; preds = %51, %run_command_on_repo.exit.loopexit.us
  %.322.ph.us = phi i32 [ %.01936.us, %run_command_on_repo.exit.loopexit.us ], [ 1, %51 ]
  %54 = add nuw i64 %.01637.us, 1
  %55 = load ptr, ptr %7, align 8, !tbaa !24
  %56 = getelementptr inbounds nuw i8, ptr %55, i64 8
  %57 = load i64, ptr %56, align 8, !tbaa !26
  %.not29.us = icmp ult i64 %54, %57
  br i1 %.not29.us, label %.lr.ph.preheader.i.us, label %.loopexit, !llvm.loop !34

run_command_on_repo.exit.loopexit.us:             ; preds = %.lr.ph.i.us
  call void @free(ptr noundef %47) #9
  %58 = call i32 @run_command(ptr noundef nonnull %5) #9
  call void @llvm.lifetime.end.p0(i64 120, ptr nonnull %5) #9
  %.not27.us = icmp eq i32 %58, 0
  br i1 %.not27.us, label %53, label %51

run_command_on_repo.exit:                         ; preds = %.lr.ph, %67
  %59 = phi ptr [ %69, %67 ], [ %38, %.lr.ph ]
  %.01637 = phi i64 [ %68, %67 ], [ 0, %.lr.ph ]
  %.01936 = phi i32 [ %.322.ph, %67 ], [ 0, %.lr.ph ]
  %60 = load ptr, ptr %59, align 8, !tbaa !29
  %61 = getelementptr inbounds nuw %struct.string_list_item, ptr %60, i64 %.01637
  %62 = load ptr, ptr %61, align 8, !tbaa !30
  call void @llvm.lifetime.start.p0(i64 120, ptr nonnull %5) #9
  call void @llvm.memcpy.p0.p0.i64(ptr noundef nonnull align 8 dereferenceable(120) %5, ptr noundef nonnull align 8 dereferenceable(120) @__const.run_command_on_repo.child, i64 120, i1 false)
  %63 = call ptr @interpolate_path(ptr noundef %62, i32 noundef 0) #9
  store i16 8, ptr %41, align 8
  call void (ptr, ...) @strvec_pushl(ptr noundef nonnull %5, ptr noundef nonnull @.str.8, ptr noundef %63, ptr noundef null) #9
  call void @free(ptr noundef %63) #9
  %64 = call i32 @run_command(ptr noundef nonnull %5) #9
  call void @llvm.lifetime.end.p0(i64 120, ptr nonnull %5) #9
  %.not27 = icmp eq i32 %64, 0
  br i1 %.not27, label %67, label %65

65:                                               ; preds = %run_command_on_repo.exit
  %66 = load i32, ptr %6, align 4, !tbaa !4
  %.not28 = icmp eq i32 %66, 0
  br i1 %.not28, label %.loopexit, label %67

67:                                               ; preds = %65, %run_command_on_repo.exit
  %.322.ph = phi i32 [ %.01936, %run_command_on_repo.exit ], [ 1, %65 ]
  %68 = add nuw i64 %.01637, 1
  %69 = load ptr, ptr %7, align 8, !tbaa !24
  %70 = getelementptr inbounds nuw i8, ptr %69, i64 8
  %71 = load i64, ptr %70, align 8, !tbaa !26
  %.not29 = icmp ult i64 %68, %71
  br i1 %.not29, label %run_command_on_repo.exit, label %.loopexit, !llvm.loop !34

.loopexit:                                        ; preds = %65, %67, %51, %53, %.preheader, %37
  %.0 = phi i32 [ 0, %37 ], [ 0, %.preheader ], [ %58, %51 ], [ %.322.ph.us, %53 ], [ %64, %65 ], [ %.322.ph, %67 ]
  call void @llvm.lifetime.end.p0(i64 264, ptr nonnull %8) #9
  call void @llvm.lifetime.end.p0(i64 8, ptr nonnull %7) #9
  call void @llvm.lifetime.end.p0(i64 4, ptr nonnull %6) #9
  ret i32 %.0
}